target datalayout = "e-m:e-p270:32:32-p271:32:32-p272:64:64-i64:64-i128:128-f80:128-n8:16:32:64-S128"
target triple = "x86_64-pc-linux-gnu"

%struct.RelationData = type { %struct.RelFileLocator, ptr, i32, i32, i8, i8, i8, i8, i8, i32, i32, i32, i32, ptr, ptr, i32, %struct.LockInfoData, ptr, ptr, ptr, ptr, ptr, i8, ptr, ptr, ptr, ptr, ptr, ptr, i32, ptr, i8, ptr, ptr, i32, i8, i32, ptr, i8, ptr, ptr, ptr, ptr, ptr, ptr, ptr, i32, ptr, ptr, ptr, ptr, ptr, ptr, ptr, ptr, ptr, ptr, ptr, ptr, ptr, ptr, ptr, ptr, ptr, ptr, ptr, i32, i8, ptr }
%struct.RelFileLocator = type { i32, i32, i32 }
%struct.LockInfoData = type { %struct.LockRelId }
%struct.LockRelId = type { i32, i32 }
%struct.LOCKTAG = type { i32, i32, i32, i16, i8, i8 }

; Function Attrs: nounwind uwtable
define dso_local void @UnlockRelationForExtension(ptr noundef %0, i32 noundef %1) #0 {
  %3 = alloca ptr, align 8
  %4 = alloca i32, align 4
  %5 = alloca %struct.LOCKTAG, align 4
  store ptr %0, ptr %3, align 8
  store i32 %1, ptr %4, align 4
  call void @llvm.lifetime.start.p0(i64 16, ptr %5) #6
  %6 = load ptr, ptr %3, align 8
  %7 = getelementptr inbounds nuw %struct.RelationData, ptr %6, i32 0, i32 16
  %8 = getelementptr inbounds nuw %struct.LockInfoData, ptr %7, i32 0, i32 0
  %9 = getelementptr inbounds nuw %struct.LockRelId, ptr %8, i32 0, i32 1
  %10 = load i32, ptr %9, align 4
  %11 = getelementptr inbounds nuw %struct.LOCKTAG, ptr %5, i32 0, i32 0
  store i32 %10, ptr %11, align 4
  %12 = load ptr, ptr %3, align 8
  %13 = getelementptr inbounds nuw %struct.RelationData, ptr %12, i32 0, i32 16
  %14 = getelementptr inbounds nuw %struct.LockInfoData, ptr %13, i32 0, i32 0
  %15 = getelementptr inbounds nuw %struct.LockRelId, ptr %14, i32 0, i32 0
  %16 = load i32, ptr %15, align 4
  %17 = getelementptr inbounds nuw %struct.LOCKTAG, ptr %5, i32 0, i32 1
  store i32 %16, ptr %17, align 4
  %18 = getelementptr inbounds nuw %struct.LOCKTAG, ptr %5, i32 0, i32 2
  store i32 0, ptr %18, align 4
  %19 = getelementptr inbounds nuw %struct.LOCKTAG, ptr %5, i32 0, i32 3
  store i16 0, ptr %19, align 4
  %20 = getelementptr inbounds nuw %struct.LOCKTAG, ptr %5, i32 0, i32 4
  store i8 1, ptr %20, align 2
  %21 = getelementptr inbounds nuw %struct.LOCKTAG, ptr %5, i32 0, i32 5
  store i8 1, ptr %21, align 1
  %22 = load i32, ptr %4, align 4
  %23 = call zeroext i1 @LockRelease(ptr noundef %5, i32 noundef %22, i1 noundef zeroext false)
  call void @llvm.lifetime.end.p0(i64 16, ptr %5) #6
  ret void
}